; Function Attrs: nounwind uwtable
define ptr @l_Lean_PrefixTree_foldMatchingM___rarg(ptr noundef %0, ptr readnone captures(none) %1, ptr noundef %2, ptr noundef %3, ptr noundef %4, ptr noundef %5, ptr noundef %6) #1 {
  %8 = ptrtoint ptr %5 to i64
  %9 = and i64 %8, 1
  %.not = icmp eq i64 %9, 0
  br i1 %.not, label %10, label %lean_inc.exit

10:                                               ; preds = %7
  %.val.i = load i32, ptr %5, align 4, !tbaa !8
  %11 = icmp sgt i32 %.val.i, 0
  br i1 %11, label %12, label %14, !prof !11

12:                                               ; preds = %10
  %13 = add nuw i32 %.val.i, 1
  store i32 %13, ptr %5, align 4, !tbaa !8
  br label %lean_inc.exit

14:                                               ; preds = %10
  %.not.i = icmp eq i32 %.val.i, 0
  br i1 %.not.i, label %lean_inc.exit, label %15

15:                                               ; preds = %14
  tail call void @lean_inc_ref_cold(ptr noundef nonnull %5) #4
  br label %lean_inc.exit

lean_inc.exit:                                    ; preds = %15, %14, %12, %7
  %16 = tail call ptr @l_Lean_PrefixTreeNode_foldMatchingM_find___rarg(ptr noundef %2, ptr noundef %0, ptr noundef %5, ptr noundef %6, ptr noundef %4, ptr noundef %3, ptr noundef %5)
  ret ptr %16
}